; Function Attrs: nounwind uwtable
define range(i64 0, 2) i64 @pt_in_widget(ptr noundef readonly captures(none) %0) local_unnamed_addr #1 {
  %2 = getelementptr inbounds nuw i8, ptr %0, i64 32
  %3 = load i64, ptr %2, align 8
  %4 = getelementptr inbounds nuw i8, ptr %0, i64 48
  %5 = load i64, ptr %4, align 8
  %6 = inttoptr i64 %5 to ptr
  %7 = tail call i64 @DirectFunctionCall2Coll(ptr noundef nonnull @point_distance, i32 noundef 0, i64 noundef %3, i64 noundef %5) #18
  %8 = bitcast i64 %7 to double
  %9 = getelementptr inbounds nuw i8, ptr %6, i64 16
  %10 = load double, ptr %9, align 8
  %11 = fcmp ogt double %10, %8
  %12 = zext i1 %11 to i64
  ret i64 %12
}